target datalayout = "e-m:e-p270:32:32-p271:32:32-p272:64:64-i64:64-i128:128-f80:128-n8:16:32:64-S128"
target triple = "x86_64-pc-linux-gnu"

%class.SSAO = type <{ %class.DecorateShader, float, float, i32, i32, i32, i32, i32, i32, i32, i32, i32, i32, i32, i32, i32, i32, i32, i32, i32, [4 x i8] }>
%class.DecorateShader = type { ptr, i8, i32, i32, i32 }

@_ZTV4SSAO = unnamed_addr constant { [8 x ptr] } { [8 x ptr] [ptr null, ptr @_ZTI4SSAO, ptr @_ZN4SSAOD1Ev, ptr @_ZN4SSAOD0Ev, ptr @_ZN4SSAO4initEv, ptr @_ZN4SSAO9runShaderER12MeshDocumentP6GLArea, ptr @_ZN4SSAO18setShadowIntensityEf, ptr @_ZN4SSAO5setupEv] }, align 8

; Function Attrs: mustprogress nounwind uwtable
define linkonce_odr void @_ZN14DecorateShaderC2Ev(ptr noundef nonnull align 8 dereferenceable(24) %0) unnamed_addr #0 comdat align 2 {
  %2 = alloca ptr, align 8
  store ptr %0, ptr %2, align 8
  %3 = load ptr, ptr %2, align 8
  store ptr getelementptr inbounds ({ [8 x ptr] }, ptr @_ZTV14DecorateShader, i32 0, i32 0, i32 2), ptr %3, align 8
  %4 = getelementptr inbounds %class.DecorateShader, ptr %3, i32 0, i32 1
  store i8 0, ptr %4, align 8
  %5 = getelementptr inbounds %class.DecorateShader, ptr %3, i32 0, i32 2
  store i32 1024, ptr %5, align 4
  %6 = getelementptr inbounds %class.DecorateShader, ptr %3, i32 0, i32 3
  store i32 1024, ptr %6, align 8
  ret void
}

; Function Attrs: mustprogress uwtable
define void @_ZN4SSAOC2Ef(ptr noundef nonnull align 8 dereferenceable(100) %0, float noundef %1) unnamed_addr #1 align 2 {
  %3 = alloca ptr, align 8
  %4 = alloca float, align 4
  store ptr %0, ptr %3, align 8
  store float %1, ptr %4, align 4
  %5 = load ptr, ptr %3, align 8
  call void @_ZN14DecorateShaderC2Ev(ptr noundef nonnull align 8 dereferenceable(24) %5)
  store ptr getelementptr inbounds ({ [8 x ptr] }, ptr @_ZTV4SSAO, i32 0, i32 0, i32 2), ptr %5, align 8
  %6 = load float, ptr %4, align 4
  %7 = getelementptr inbounds %class.SSAO, ptr %5, i32 0, i32 1
  store float %6, ptr %7, align 8
  %8 = getelementptr inbounds %class.SSAO, ptr %5, i32 0, i32 9
  store i32 0, ptr %8, align 8
  %9 = getelementptr inbounds %class.SSAO, ptr %5, i32 0, i32 5
  store i32 0, ptr %9, align 8
  %10 = getelementptr inbounds %class.SSAO, ptr %5, i32 0, i32 13
  store i32 0, ptr %10, align 8
  %11 = getelementptr inbounds %class.SSAO, ptr %5, i32 0, i32 12
  store i32 0, ptr %11, align 4
  %12 = getelementptr inbounds %class.SSAO, ptr %5, i32 0, i32 11
  store i32 0, ptr %12, align 8
  %13 = getelementptr inbounds %class.SSAO, ptr %5, i32 0, i32 8
  store i32 0, ptr %13, align 4
  %14 = getelementptr inbounds %class.SSAO, ptr %5, i32 0, i32 6
  store i32 0, ptr %14, align 4
  %15 = getelementptr inbounds %class.SSAO, ptr %5, i32 0, i32 15
  store i32 0, ptr %15, align 8
  %16 = getelementptr inbounds %class.SSAO, ptr %5, i32 0, i32 16
  store i32 0, ptr %16, align 4
  %17 = getelementptr inbounds %class.SSAO, ptr %5, i32 0, i32 14
  store i32 0, ptr %17, align 4
  %18 = getelementptr inbounds %class.SSAO, ptr %5, i32 0, i32 18
  store i32 0, ptr %18, align 4
  %19 = getelementptr inbounds %class.SSAO, ptr %5, i32 0, i32 19
  store i32 0, ptr %19, align 8
  %20 = getelementptr inbounds %class.SSAO, ptr %5, i32 0, i32 17
  store i32 0, ptr %20, align 8
  %21 = getelementptr inbounds %class.DecorateShader, ptr %5, i32 0, i32 4
  store i32 0, ptr %21, align 4
  %22 = getelementptr inbounds %class.SSAO, ptr %5, i32 0, i32 10
  store i32 0, ptr %22, align 4
  ret void
}