; Function Attrs: mustprogress nofree norecurse nosync nounwind willreturn memory(argmem: write) uwtable
define void @_ZN4SSAOC2Ef(ptr nocapture noundef nonnull writeonly align 8 dereferenceable(100) %0, float noundef %1) unnamed_addr #11 align 2 {
  %3 = getelementptr inbounds i8, ptr %0, i64 8
  store i8 0, ptr %3, align 8
  %4 = getelementptr inbounds i8, ptr %0, i64 12
  store i32 1024, ptr %4, align 4
  %5 = getelementptr inbounds i8, ptr %0, i64 16
  store i32 1024, ptr %5, align 8
  store ptr getelementptr inbounds ({ [8 x ptr] }, ptr @_ZTV4SSAO, i64 0, i32 0, i64 2), ptr %0, align 8
  %6 = getelementptr inbounds i8, ptr %0, i64 24
  store float %1, ptr %6, align 8
  %7 = getelementptr inbounds i8, ptr %0, i64 40
  store i32 0, ptr %7, align 8
  %8 = getelementptr inbounds i8, ptr %0, i64 52
  %9 = getelementptr inbounds i8, ptr %0, i64 44
  store i32 0, ptr %9, align 4
  %10 = getelementptr inbounds i8, ptr %0, i64 20
  store i32 0, ptr %10, align 4
  tail call void @llvm.memset.p0.i64(ptr noundef nonnull align 4 dereferenceable(48) %8, i8 0, i64 48, i1 false)
  ret void
}